target datalayout = "e-m:e-p270:32:32-p271:32:32-p272:64:64-i64:64-i128:128-f80:128-n8:16:32:64-S128"
target triple = "x86_64-pc-linux-gnu"

%struct.CVodeMemRec = type { ptr, double, ptr, ptr, i32, i32, double, double, ptr, i32, i32, ptr, ptr, i32, i32, ptr, i32, i32, double, double, ptr, i32, i32, i32, i32, ptr, ptr, ptr, i32, i32, ptr, ptr, ptr, i32, double, i32, i32, double, ptr, ptr, ptr, i32, ptr, ptr, i32, i32, i32, double, ptr, ptr, ptr, [13 x ptr], ptr, ptr, ptr, ptr, ptr, ptr, ptr, ptr, ptr, [13 x ptr], ptr, ptr, ptr, ptr, [13 x ptr], ptr, ptr, ptr, ptr, ptr, i32, [13 x ptr], ptr, ptr, ptr, ptr, ptr, i32, i32, double, i32, i32, i32, i32, i32, double, double, double, double, double, double, double, double, [14 x double], [6 x double], [13 x double], double, double, double, double, double, double, double, double, i32, double, double, i32, double, double, ptr, i32, i64, i32, i32, i32, double, double, double, double, double, double, double, double, double, double, double, double, i64, i32, i64, i64, i64, i64, i64, i64, i64, i64, i64, ptr, i64, i64, ptr, i64, i64, ptr, i64, i64, i64, i64, i64, i64, i32, double, double, double, i64, i64, i64, i64, i64, i64, ptr, i32, ptr, i32, ptr, i32, ptr, i32, i32, i64, i32, ptr, i32, ptr, ptr, ptr, ptr, ptr, ptr, i32, i32, ptr, ptr, ptr, ptr, ptr, i64, double, i32, i32, i64, double, double, double, i32, i32, double, i32, i32, i32, i32, i32, i32, i32, i32, i32, i32, i32, i32, i32, i32, i32, i32, ptr, i64, i32, [6 x [4 x double]], i32, i64, ptr, i32, ptr, ptr, double, double, double, ptr, ptr, ptr, double, double, i32, i32, i64, ptr, i32, ptr, i32, i32, [13 x double], ptr, ptr, ptr, i32, ptr, i32 }
%struct.CVadjMemRec = type { double, double, i32, i32, double, i32, double, ptr, i32, ptr, i32, ptr, i32, ptr, i64, i64, ptr, i64, i32, ptr, ptr, ptr, ptr, i32, i32, i32, i32, [13 x ptr], [13 x ptr], [13 x double], ptr, ptr }
%struct.CVodeBMemRec = type { i32, double, ptr, i32, i32, ptr, ptr, ptr, ptr, ptr, ptr, ptr, ptr, ptr, double, ptr, ptr }

@.str = private unnamed_addr constant [118 x i8] c"generated/home/dtcxzyw/WorkSpace/Projects/compilers/llvm-opt-benchmark/bench/sundials/sundials/src/cvodes/cvodea_io.c\00", align 1
@.str.1 = private unnamed_addr constant [26 x i8] c"cvode_mem = NULL illegal.\00", align 1
@.str.2 = private unnamed_addr constant [55 x i8] c"Illegal attempt to call before calling CVodeAdjMalloc.\00", align 1
@.str.3 = private unnamed_addr constant [25 x i8] c"Illegal value for which.\00", align 1
@__func__.CVodeSetMaxOrdB = private unnamed_addr constant [16 x i8] c"CVodeSetMaxOrdB\00", align 1

; Function Attrs: nounwind uwtable
define i32 @CVodeSetMaxOrdB(ptr noundef %0, i32 noundef %1, i32 noundef %2) #0 {
  %4 = alloca i32, align 4
  %5 = alloca ptr, align 8
  %6 = alloca i32, align 4
  %7 = alloca i32, align 4
  %8 = alloca ptr, align 8
  %9 = alloca ptr, align 8
  %10 = alloca ptr, align 8
  %11 = alloca ptr, align 8
  %12 = alloca i32, align 4
  store ptr %0, ptr %5, align 8
  store i32 %1, ptr %6, align 4
  store i32 %2, ptr %7, align 4
  %13 = load ptr, ptr %5, align 8
  %14 = icmp eq ptr %13, null
  br i1 %14, label %15, label %16

15:                                               ; preds = %3
  call void (ptr, i32, i32, ptr, ptr, ptr, ...) @cvProcessError(ptr noundef null, i32 noundef -21, i32 noundef 185, ptr noundef @__func__.CVodeSetMaxOrdB, ptr noundef @.str, ptr noundef @.str.1)
  store i32 -21, ptr %4, align 4
  br label %61

16:                                               ; preds = %3
  %17 = load ptr, ptr %5, align 8
  store ptr %17, ptr %8, align 8
  %18 = load ptr, ptr %8, align 8
  %19 = getelementptr inbounds %struct.CVodeMemRec, ptr %18, i32 0, i32 249
  %20 = load i32, ptr %19, align 8
  %21 = icmp eq i32 %20, 0
  br i1 %21, label %22, label %24

22:                                               ; preds = %16
  %23 = load ptr, ptr %8, align 8
  call void (ptr, i32, i32, ptr, ptr, ptr, ...) @cvProcessError(ptr noundef %23, i32 noundef -101, i32 noundef 193, ptr noundef @__func__.CVodeSetMaxOrdB, ptr noundef @.str, ptr noundef @.str.2)
  store i32 -101, ptr %4, align 4
  br label %61

24:                                               ; preds = %16
  %25 = load ptr, ptr %8, align 8
  %26 = getelementptr inbounds %struct.CVodeMemRec, ptr %25, i32 0, i32 248
  %27 = load ptr, ptr %26, align 8
  store ptr %27, ptr %9, align 8
  %28 = load i32, ptr %6, align 4
  %29 = load ptr, ptr %9, align 8
  %30 = getelementptr inbounds %struct.CVadjMemRec, ptr %29, i32 0, i32 8
  %31 = load i32, ptr %30, align 8
  %32 = icmp sge i32 %28, %31
  br i1 %32, label %33, label %35

33:                                               ; preds = %24
  %34 = load ptr, ptr %8, align 8
  call void (ptr, i32, i32, ptr, ptr, ptr, ...) @cvProcessError(ptr noundef %34, i32 noundef -22, i32 noundef 201, ptr noundef @__func__.CVodeSetMaxOrdB, ptr noundef @.str, ptr noundef @.str.3)
  store i32 -22, ptr %4, align 4
  br label %61

35:                                               ; preds = %24
  %36 = load ptr, ptr %9, align 8
  %37 = getelementptr inbounds %struct.CVadjMemRec, ptr %36, i32 0, i32 7
  %38 = load ptr, ptr %37, align 8
  store ptr %38, ptr %10, align 8
  br label %39

39:                                               ; preds = %49, %35
  %40 = load ptr, ptr %10, align 8
  %41 = icmp ne ptr %40, null
  br i1 %41, label %42, label %53

42:                                               ; preds = %39
  %43 = load i32, ptr %6, align 4
  %44 = load ptr, ptr %10, align 8
  %45 = getelementptr inbounds %struct.CVodeBMemRec, ptr %44, i32 0, i32 0
  %46 = load i32, ptr %45, align 8
  %47 = icmp eq i32 %43, %46
  br i1 %47, label %48, label %49

48:                                               ; preds = %42
  br label %53

49:                                               ; preds = %42
  %50 = load ptr, ptr %10, align 8
  %51 = getelementptr inbounds %struct.CVodeBMemRec, ptr %50, i32 0, i32 16
  %52 = load ptr, ptr %51, align 8
  store ptr %52, ptr %10, align 8
  br label %39

53:                                               ; preds = %48, %39
  %54 = load ptr, ptr %10, align 8
  %55 = getelementptr inbounds %struct.CVodeBMemRec, ptr %54, i32 0, i32 2
  %56 = load ptr, ptr %55, align 8
  store ptr %56, ptr %11, align 8
  %57 = load ptr, ptr %11, align 8
  %58 = load i32, ptr %7, align 4
  %59 = call i32 @CVodeSetMaxOrd(ptr noundef %57, i32 noundef %58)
  store i32 %59, ptr %12, align 4
  %60 = load i32, ptr %12, align 4
  store i32 %60, ptr %4, align 4
  br label %61

61:                                               ; preds = %53, %33, %22, %15
  %62 = load i32, ptr %4, align 4
  ret i32 %62
}