; Function Attrs: nounwind uwtable
define i32 @CVodeSetMaxOrdB(ptr noundef %0, i32 noundef %1, i32 noundef %2) local_unnamed_addr #0 {
  %4 = icmp eq ptr %0, null
  br i1 %4, label %5, label %6

5:                                                ; preds = %3
  tail call void (ptr, i32, i32, ptr, ptr, ptr, ...) @cvProcessError(ptr noundef null, i32 noundef -21, i32 noundef 185, ptr noundef nonnull @__func__.CVodeSetMaxOrdB, ptr noundef nonnull @.str, ptr noundef nonnull @.str.1) #2
  br label %25

6:                                                ; preds = %3
  %7 = getelementptr inbounds nuw i8, ptr %0, i64 2680
  %8 = load i32, ptr %7, align 8
  %9 = icmp eq i32 %8, 0
  br i1 %9, label %10, label %11

10:                                               ; preds = %6
  tail call void (ptr, i32, i32, ptr, ptr, ptr, ...) @cvProcessError(ptr noundef nonnull %0, i32 noundef -101, i32 noundef 193, ptr noundef nonnull @__func__.CVodeSetMaxOrdB, ptr noundef nonnull @.str, ptr noundef nonnull @.str.2) #2
  br label %25

11:                                               ; preds = %6
  %12 = getelementptr inbounds nuw i8, ptr %0, i64 2672
  %13 = load ptr, ptr %12, align 8
  %14 = getelementptr inbounds nuw i8, ptr %13, i64 56
  %15 = load i32, ptr %14, align 8
  %.not = icmp slt i32 %1, %15
  br i1 %.not, label %17, label %16

16:                                               ; preds = %11
  tail call void (ptr, i32, i32, ptr, ptr, ptr, ...) @cvProcessError(ptr noundef nonnull %0, i32 noundef -22, i32 noundef 201, ptr noundef nonnull @__func__.CVodeSetMaxOrdB, ptr noundef nonnull @.str, ptr noundef nonnull @.str.3) #2
  br label %25

17:                                               ; preds = %11
  %18 = getelementptr inbounds nuw i8, ptr %13, i64 48
  br label %.lr.ph

.lr.ph:                                           ; preds = %.lr.ph, %17
  %.017.sink.in = phi ptr [ %21, %.lr.ph ], [ %18, %17 ]
  %.017.sink = load ptr, ptr %.017.sink.in, align 8, !nonnull !4, !noundef !4
  %19 = load i32, ptr %.017.sink, align 8
  %20 = icmp eq i32 %1, %19
  %21 = getelementptr inbounds nuw i8, ptr %.017.sink, i64 120
  br i1 %20, label %._crit_edge, label %.lr.ph

._crit_edge:                                      ; preds = %.lr.ph
  %22 = getelementptr inbounds nuw i8, ptr %.017.sink, i64 16
  %23 = load ptr, ptr %22, align 8
  %24 = tail call i32 @CVodeSetMaxOrd(ptr noundef %23, i32 noundef %2) #2
  br label %25

25:                                               ; preds = %._crit_edge, %16, %10, %5
  %.0 = phi i32 [ -21, %5 ], [ -101, %10 ], [ -22, %16 ], [ %24, %._crit_edge ]
  ret i32 %.0
}